target datalayout = "e-m:e-p270:32:32-p271:32:32-p272:64:64-i64:64-i128:128-f80:128-n8:16:32:64-S128"
target triple = "x86_64-pc-linux-gnu"

; Function Attrs: inlinehint nounwind uwtable
define internal i32 @_PyType_IsReady(ptr noundef %0) #2 {
  %2 = alloca ptr, align 8
  store ptr %0, ptr %2, align 8, !tbaa !42
  %3 = load ptr, ptr %2, align 8, !tbaa !42
  %4 = call ptr @_PyType_GetDict(ptr noundef %3)
  %5 = icmp ne ptr %4, null
  %6 = zext i1 %5 to i32
  ret i32 %6
}

; Function Attrs: nounwind uwtable
define dso_local i32 @PyModule_AddType(ptr noundef %0, ptr noundef %1) #0 {
  %3 = alloca i32, align 4
  %4 = alloca ptr, align 8
  %5 = alloca ptr, align 8
  %6 = alloca ptr, align 8
  store ptr %0, ptr %4, align 8, !tbaa !4
  store ptr %1, ptr %5, align 8, !tbaa !42
  %7 = load ptr, ptr %5, align 8, !tbaa !42
  %8 = call i32 @_PyType_IsReady(ptr noundef %7)
  %9 = icmp ne i32 %8, 0
  br i1 %9, label %15, label %10

10:                                               ; preds = %2
  %11 = load ptr, ptr %5, align 8, !tbaa !42
  %12 = call i32 @PyType_Ready(ptr noundef %11)
  %13 = icmp slt i32 %12, 0
  br i1 %13, label %14, label %15

14:                                               ; preds = %10
  store i32 -1, ptr %3, align 4
  br label %22

15:                                               ; preds = %10, %2
  call void @llvm.lifetime.start.p0(i64 8, ptr %6) #7
  %16 = load ptr, ptr %5, align 8, !tbaa !42
  %17 = call ptr @_PyType_Name(ptr noundef %16)
  store ptr %17, ptr %6, align 8, !tbaa !27
  %18 = load ptr, ptr %4, align 8, !tbaa !4
  %19 = load ptr, ptr %6, align 8, !tbaa !27
  %20 = load ptr, ptr %5, align 8, !tbaa !42
  %21 = call i32 @PyModule_AddObjectRef(ptr noundef %18, ptr noundef %19, ptr noundef %20)
  store i32 %21, ptr %3, align 4
  call void @llvm.lifetime.end.p0(i64 8, ptr %6) #7
  br label %22

22:                                               ; preds = %15, %14
  %23 = load i32, ptr %3, align 4
  ret i32 %23
}