; Function Attrs: nounwind uwtable
define dso_local i32 @PyModule_AddType(ptr noundef %0, ptr noundef %1) local_unnamed_addr #0 {
  %3 = tail call ptr @_PyType_GetDict(ptr noundef %1) #7
  %.not6 = icmp eq ptr %3, null
  br i1 %.not6, label %4, label %7

4:                                                ; preds = %2
  %5 = tail call i32 @PyType_Ready(ptr noundef %1) #7
  %6 = icmp slt i32 %5, 0
  br i1 %6, label %10, label %7

7:                                                ; preds = %4, %2
  %8 = tail call ptr @_PyType_Name(ptr noundef %1) #7
  %9 = tail call i32 @PyModule_AddObjectRef(ptr noundef %0, ptr noundef %8, ptr noundef %1)
  br label %10

10:                                               ; preds = %4, %7
  %.0 = phi i32 [ %9, %7 ], [ -1, %4 ]
  ret i32 %.0
}